target datalayout = "e-m:e-p270:32:32-p271:32:32-p272:64:64-i64:64-i128:128-f80:128-n8:16:32:64-S128"
target triple = "x86_64-unknown-linux-gnu"

%"class.std::__cxx11::basic_string" = type { %"struct.std::__cxx11::basic_string<char>::_Alloc_hider", i64, %union.anon.21 }
%"struct.std::__cxx11::basic_string<char>::_Alloc_hider" = type { ptr }
%union.anon.21 = type { i64, [8 x i8] }
%"class.OpenImageIO_v2_6_0::PSDInput" = type { %"class.OpenImageIO_v2_6_0::ImageInput", %"class.std::__cxx11::basic_string", i32, i32, %"class.std::vector.22", %"class.OpenImageIO_v2_6_0::ImageSpec", %"class.OpenImageIO_v2_6_0::ImageSpec", i8, %"struct.OpenImageIO_v2_6_0::TypeDesc", %"class.std::vector.27", %"class.std::vector.3", i16, [4 x float], i8, %"struct.OpenImageIO_v2_6_0::psd_pvt::FileHeader", %"struct.OpenImageIO_v2_6_0::psd_pvt::ColorModeData", %"struct.OpenImageIO_v2_6_0::PSDInput::LayerMaskInfo", %"class.std::vector.40", %"struct.OpenImageIO_v2_6_0::PSDInput::GlobalMaskInfo", [2 x i8], %"struct.OpenImageIO_v2_6_0::PSDInput::ImageDataSection", %"class.OpenImageIO_v2_6_0::ImageBuf" }
%"class.OpenImageIO_v2_6_0::ImageInput" = type { ptr, %"class.OpenImageIO_v2_6_0::ImageSpec", %"class.std::unique_ptr" }
%"class.std::unique_ptr" = type { %"struct.std::__uniq_ptr_data" }
%"struct.std::__uniq_ptr_data" = type { %"class.std::__uniq_ptr_impl" }
%"class.std::__uniq_ptr_impl" = type { %"class.std::tuple.13" }
%"class.std::tuple.13" = type { %"struct.std::_Tuple_impl.14" }
%"struct.std::_Tuple_impl.14" = type { %"struct.std::_Tuple_impl.15", %"struct.std::_Head_base.17" }
%"struct.std::_Tuple_impl.15" = type { %"struct.std::_Head_base.16" }
%"struct.std::_Head_base.16" = type { ptr }
%"struct.std::_Head_base.17" = type { ptr }
%"class.std::vector.22" = type { %"struct.std::_Vector_base.23" }
%"struct.std::_Vector_base.23" = type { %"struct.std::_Vector_base<OpenImageIO_v2_6_0::ImageSpec, std::allocator<OpenImageIO_v2_6_0::ImageSpec>>::_Vector_impl" }
%"struct.std::_Vector_base<OpenImageIO_v2_6_0::ImageSpec, std::allocator<OpenImageIO_v2_6_0::ImageSpec>>::_Vector_impl" = type { %"struct.std::_Vector_base<OpenImageIO_v2_6_0::ImageSpec, std::allocator<OpenImageIO_v2_6_0::ImageSpec>>::_Vector_impl_data" }
%"struct.std::_Vector_base<OpenImageIO_v2_6_0::ImageSpec, std::allocator<OpenImageIO_v2_6_0::ImageSpec>>::_Vector_impl_data" = type { ptr, ptr, ptr }
%"class.OpenImageIO_v2_6_0::ImageSpec" = type { i32, i32, i32, i32, i32, i32, i32, i32, i32, i32, i32, i32, i32, i32, i32, i32, %"struct.OpenImageIO_v2_6_0::TypeDesc", %"class.std::vector", %"class.std::vector.3", i32, i32, i8, %"class.OpenImageIO_v2_6_0::ParamValueList" }
%"class.std::vector" = type { %"struct.std::_Vector_base" }
%"struct.std::_Vector_base" = type { %"struct.std::_Vector_base<OpenImageIO_v2_6_0::TypeDesc, std::allocator<OpenImageIO_v2_6_0::TypeDesc>>::_Vector_impl" }
%"struct.std::_Vector_base<OpenImageIO_v2_6_0::TypeDesc, std::allocator<OpenImageIO_v2_6_0::TypeDesc>>::_Vector_impl" = type { %"struct.std::_Vector_base<OpenImageIO_v2_6_0::TypeDesc, std::allocator<OpenImageIO_v2_6_0::TypeDesc>>::_Vector_impl_data" }
%"struct.std::_Vector_base<OpenImageIO_v2_6_0::TypeDesc, std::allocator<OpenImageIO_v2_6_0::TypeDesc>>::_Vector_impl_data" = type { ptr, ptr, ptr }
%"class.OpenImageIO_v2_6_0::ParamValueList" = type { %"class.std::vector.8" }
%"class.std::vector.8" = type { %"struct.std::_Vector_base.9" }
%"struct.std::_Vector_base.9" = type { %"struct.std::_Vector_base<OpenImageIO_v2_6_0::ParamValue, std::allocator<OpenImageIO_v2_6_0::ParamValue>>::_Vector_impl" }
%"struct.std::_Vector_base<OpenImageIO_v2_6_0::ParamValue, std::allocator<OpenImageIO_v2_6_0::ParamValue>>::_Vector_impl" = type { %"struct.std::_Vector_base<OpenImageIO_v2_6_0::ParamValue, std::allocator<OpenImageIO_v2_6_0::ParamValue>>::_Vector_impl_data" }
%"struct.std::_Vector_base<OpenImageIO_v2_6_0::ParamValue, std::allocator<OpenImageIO_v2_6_0::ParamValue>>::_Vector_impl_data" = type { ptr, ptr, ptr }
%"struct.OpenImageIO_v2_6_0::TypeDesc" = type { i8, i8, i8, i8, i32 }
%"class.std::vector.27" = type { %"struct.std::_Vector_base.28" }
%"struct.std::_Vector_base.28" = type { %"struct.std::_Vector_base<std::vector<OpenImageIO_v2_6_0::PSDInput::ChannelInfo *>, std::allocator<std::vector<OpenImageIO_v2_6_0::PSDInput::ChannelInfo *>>>::_Vector_impl" }
%"struct.std::_Vector_base<std::vector<OpenImageIO_v2_6_0::PSDInput::ChannelInfo *>, std::allocator<std::vector<OpenImageIO_v2_6_0::PSDInput::ChannelInfo *>>>::_Vector_impl" = type { %"struct.std::_Vector_base<std::vector<OpenImageIO_v2_6_0::PSDInput::ChannelInfo *>, std::allocator<std::vector<OpenImageIO_v2_6_0::PSDInput::ChannelInfo *>>>::_Vector_impl_data" }
%"struct.std::_Vector_base<std::vector<OpenImageIO_v2_6_0::PSDInput::ChannelInfo *>, std::allocator<std::vector<OpenImageIO_v2_6_0::PSDInput::ChannelInfo *>>>::_Vector_impl_data" = type { ptr, ptr, ptr }
%"class.std::vector.3" = type { %"struct.std::_Vector_base.4" }
%"struct.std::_Vector_base.4" = type { %"struct.std::_Vector_base<std::__cxx11::basic_string<char>, std::allocator<std::__cxx11::basic_string<char>>>::_Vector_impl" }
%"struct.std::_Vector_base<std::__cxx11::basic_string<char>, std::allocator<std::__cxx11::basic_string<char>>>::_Vector_impl" = type { %"struct.std::_Vector_base<std::__cxx11::basic_string<char>, std::allocator<std::__cxx11::basic_string<char>>>::_Vector_impl_data" }
%"struct.std::_Vector_base<std::__cxx11::basic_string<char>, std::allocator<std::__cxx11::basic_string<char>>>::_Vector_impl_data" = type { ptr, ptr, ptr }
%"struct.OpenImageIO_v2_6_0::psd_pvt::FileHeader" = type { [4 x i8], i16, i16, i32, i32, i16, i16 }
%"struct.OpenImageIO_v2_6_0::psd_pvt::ColorModeData" = type { i32, %"class.std::unique_ptr.32" }
%"class.std::unique_ptr.32" = type { %"struct.std::__uniq_ptr_data.33" }
%"struct.std::__uniq_ptr_data.33" = type { %"class.std::__uniq_ptr_impl.34" }
%"class.std::__uniq_ptr_impl.34" = type { %"class.std::tuple.35" }
%"class.std::tuple.35" = type { %"struct.std::_Tuple_impl.36" }
%"struct.std::_Tuple_impl.36" = type { %"struct.std::_Head_base.39" }
%"struct.std::_Head_base.39" = type { ptr }
%"struct.OpenImageIO_v2_6_0::PSDInput::LayerMaskInfo" = type { i64, i64, i64, %"struct.OpenImageIO_v2_6_0::PSDInput::LayerMaskInfo::LayerInfo" }
%"struct.OpenImageIO_v2_6_0::PSDInput::LayerMaskInfo::LayerInfo" = type { i64, i16, i64, i64 }
%"class.std::vector.40" = type { %"struct.std::_Vector_base.41" }
%"struct.std::_Vector_base.41" = type { %"struct.std::_Vector_base<OpenImageIO_v2_6_0::PSDInput::Layer, std::allocator<OpenImageIO_v2_6_0::PSDInput::Layer>>::_Vector_impl" }
%"struct.std::_Vector_base<OpenImageIO_v2_6_0::PSDInput::Layer, std::allocator<OpenImageIO_v2_6_0::PSDInput::Layer>>::_Vector_impl" = type { %"struct.std::_Vector_base<OpenImageIO_v2_6_0::PSDInput::Layer, std::allocator<OpenImageIO_v2_6_0::PSDInput::Layer>>::_Vector_impl_data" }
%"struct.std::_Vector_base<OpenImageIO_v2_6_0::PSDInput::Layer, std::allocator<OpenImageIO_v2_6_0::PSDInput::Layer>>::_Vector_impl_data" = type { ptr, ptr, ptr }
%"struct.OpenImageIO_v2_6_0::PSDInput::GlobalMaskInfo" = type { i16, [4 x i16], i16, i8 }
%"struct.OpenImageIO_v2_6_0::PSDInput::ImageDataSection" = type <{ %"class.std::vector.45", i8, [7 x i8] }>
%"class.std::vector.45" = type { %"struct.std::_Vector_base.46" }
%"struct.std::_Vector_base.46" = type { %"struct.std::_Vector_base<OpenImageIO_v2_6_0::PSDInput::ChannelInfo, std::allocator<OpenImageIO_v2_6_0::PSDInput::ChannelInfo>>::_Vector_impl" }
%"struct.std::_Vector_base<OpenImageIO_v2_6_0::PSDInput::ChannelInfo, std::allocator<OpenImageIO_v2_6_0::PSDInput::ChannelInfo>>::_Vector_impl" = type { %"struct.std::_Vector_base<OpenImageIO_v2_6_0::PSDInput::ChannelInfo, std::allocator<OpenImageIO_v2_6_0::PSDInput::ChannelInfo>>::_Vector_impl_data" }
%"struct.std::_Vector_base<OpenImageIO_v2_6_0::PSDInput::ChannelInfo, std::allocator<OpenImageIO_v2_6_0::PSDInput::ChannelInfo>>::_Vector_impl_data" = type { ptr, ptr, ptr }
%"class.OpenImageIO_v2_6_0::ImageBuf" = type { %"class.std::unique_ptr.50" }
%"class.std::unique_ptr.50" = type { %"struct.std::__uniq_ptr_data.51" }
%"struct.std::__uniq_ptr_data.51" = type { %"class.std::__uniq_ptr_impl.52" }
%"class.std::__uniq_ptr_impl.52" = type { %"class.std::tuple.53" }
%"class.std::tuple.53" = type { %"struct.std::_Tuple_impl.54" }
%"struct.std::_Tuple_impl.54" = type { %"struct.std::_Tuple_impl.55", %"struct.std::_Head_base.57" }
%"struct.std::_Tuple_impl.55" = type { %"struct.std::_Head_base.56" }
%"struct.std::_Head_base.56" = type { ptr }
%"struct.std::_Head_base.57" = type { ptr }

@.str.68 = private unnamed_addr constant [55 x i8] c"[Image Resource] Transparency index {} is out of range\00", align 1

; Function Attrs: mustprogress nounwind uwtable
define linkonce_odr hidden void @_ZN18OpenImageIO_v2_6_011swap_endianIsEEvPT_i(ptr noundef %f, i32 noundef %len) #4 comdat {
entry:
  %f.addr = alloca ptr, align 8
  %len.addr = alloca i32, align 4
  %i = alloca i32, align 4
  store ptr %f, ptr %f.addr, align 8
  store i32 %len, ptr %len.addr, align 4
  store i32 0, ptr %i, align 4
  br label %for.cond

for.cond:                                         ; preds = %for.inc, %entry
  %0 = load i32, ptr %i, align 4
  %1 = load i32, ptr %len.addr, align 4
  %cmp = icmp slt i32 %0, %1
  br i1 %cmp, label %for.body, label %for.end

for.body:                                         ; preds = %for.cond
  %2 = load ptr, ptr %f.addr, align 8
  %3 = load i32, ptr %i, align 4
  %idxprom = sext i32 %3 to i64
  %arrayidx = getelementptr inbounds i16, ptr %2, i64 %idxprom
  %4 = load i16, ptr %arrayidx, align 2
  %5 = call i16 @llvm.bswap.i16(i16 %4)
  %6 = load ptr, ptr %f.addr, align 8
  %7 = load i32, ptr %i, align 4
  %idxprom1 = sext i32 %7 to i64
  %arrayidx2 = getelementptr inbounds i16, ptr %6, i64 %idxprom1
  store i16 %5, ptr %arrayidx2, align 2
  br label %for.inc

for.inc:                                          ; preds = %for.body
  %8 = load i32, ptr %i, align 4
  %inc = add nsw i32 %8, 1
  store i32 %inc, ptr %i, align 4
  br label %for.cond, !llvm.loop !196

for.end:                                          ; preds = %for.cond
  ret void
}

; Function Attrs: mustprogress uwtable
define linkonce_odr hidden noundef zeroext i1 @_ZN18OpenImageIO_v2_6_08PSDInput9read_bigeIssEEbRT0_(ptr noundef nonnull align 8 dereferenceable(840) %this, ptr noundef nonnull align 2 dereferenceable(2) %value) #6 comdat align 2 {
entry:
  %retval = alloca i1, align 1
  %this.addr = alloca ptr, align 8
  %value.addr = alloca ptr, align 8
  %buffer = alloca i16, align 2
  store ptr %this, ptr %this.addr, align 8
  store ptr %value, ptr %value.addr, align 8
  %this1 = load ptr, ptr %this.addr, align 8
  %call = call noundef zeroext i1 @_ZN18OpenImageIO_v2_6_010ImageInput6ioreadEPvmm(ptr noundef nonnull align 8 dereferenceable(184) %this1, ptr noundef %buffer, i64 noundef 2, i64 noundef 1)
  br i1 %call, label %if.end, label %if.then

if.then:                                          ; preds = %entry
  store i1 false, ptr %retval, align 1
  br label %return

if.end:                                           ; preds = %entry
  call void @_ZN18OpenImageIO_v2_6_011swap_endianIsEEvPT_i(ptr noundef %buffer, i32 noundef 1)
  %0 = load i16, ptr %buffer, align 2
  %1 = load ptr, ptr %value.addr, align 8
  store i16 %0, ptr %1, align 2
  store i1 true, ptr %retval, align 1
  br label %return

return:                                           ; preds = %if.end, %if.then
  %2 = load i1, ptr %retval, align 1
  ret i1 %2
}

; Function Attrs: mustprogress uwtable
define hidden noundef zeroext i1 @_ZN18OpenImageIO_v2_6_08PSDInput18load_resource_1047Ej(ptr noundef nonnull align 8 dereferenceable(840) %this, i32 noundef %0) #6 align 2 {
entry:
  %retval = alloca i1, align 1
  %this.addr = alloca ptr, align 8
  %.addr = alloca i32, align 4
  store ptr %this, ptr %this.addr, align 8
  store i32 %0, ptr %.addr, align 4
  %this1 = load ptr, ptr %this.addr, align 8
  %m_transparency_index = getelementptr inbounds %"class.OpenImageIO_v2_6_0::PSDInput", ptr %this1, i32 0, i32 11
  %call = call noundef zeroext i1 @_ZN18OpenImageIO_v2_6_08PSDInput9read_bigeIssEEbRT0_(ptr noundef nonnull align 8 dereferenceable(840) %this1, ptr noundef nonnull align 2 dereferenceable(2) %m_transparency_index)
  br i1 %call, label %if.end, label %if.then

if.then:                                          ; preds = %entry
  store i1 false, ptr %retval, align 1
  br label %return

if.end:                                           ; preds = %entry
  %m_transparency_index2 = getelementptr inbounds %"class.OpenImageIO_v2_6_0::PSDInput", ptr %this1, i32 0, i32 11
  %1 = load i16, ptr %m_transparency_index2, align 8
  %conv = sext i16 %1 to i32
  %cmp = icmp slt i32 %conv, 0
  br i1 %cmp, label %if.then6, label %lor.lhs.false

lor.lhs.false:                                    ; preds = %if.end
  %m_transparency_index3 = getelementptr inbounds %"class.OpenImageIO_v2_6_0::PSDInput", ptr %this1, i32 0, i32 11
  %2 = load i16, ptr %m_transparency_index3, align 8
  %conv4 = sext i16 %2 to i32
  %cmp5 = icmp sge i32 %conv4, 768
  br i1 %cmp5, label %if.then6, label %if.end8

if.then6:                                         ; preds = %lor.lhs.false, %if.end
  %m_transparency_index7 = getelementptr inbounds %"class.OpenImageIO_v2_6_0::PSDInput", ptr %this1, i32 0, i32 11
  call void @_ZNK18OpenImageIO_v2_6_010ImageInput8errorfmtIJsEEEvPKcDpRKT_(ptr noundef nonnull align 8 dereferenceable(184) %this1, ptr noundef @.str.68, ptr noundef nonnull align 2 dereferenceable(2) %m_transparency_index7)
  store i1 false, ptr %retval, align 1
  br label %return

if.end8:                                          ; preds = %lor.lhs.false
  store i1 true, ptr %retval, align 1
  br label %return

return:                                           ; preds = %if.end8, %if.then6, %if.then
  %3 = load i1, ptr %retval, align 1
  ret i1 %3
}