; Function Attrs: mustprogress uwtable
define hidden noundef zeroext i1 @_ZN18OpenImageIO_v2_6_08PSDInput18load_resource_1047Ej(ptr noundef nonnull align 8 dereferenceable(840) %this, i32 %0) #5 align 2 {
entry:
  %buffer.i = alloca i16, align 2
  %m_transparency_index = getelementptr inbounds i8, ptr %this, i64 632
  call void @llvm.lifetime.start.p0(i64 2, ptr nonnull %buffer.i)
  %call.i = call noundef zeroext i1 @_ZN18OpenImageIO_v2_6_010ImageInput6ioreadEPvmm(ptr noundef nonnull align 8 dereferenceable(184) %this, ptr noundef nonnull %buffer.i, i64 noundef 2, i64 noundef 1)
  br i1 %call.i, label %if.end, label %_ZN18OpenImageIO_v2_6_08PSDInput9read_bigeIssEEbRT0_.exit

_ZN18OpenImageIO_v2_6_08PSDInput9read_bigeIssEEbRT0_.exit: ; preds = %entry
  call void @llvm.lifetime.end.p0(i64 2, ptr nonnull %buffer.i)
  br label %return

if.end:                                           ; preds = %entry
  %buffer.promoted.i = load i16, ptr %buffer.i, align 2
  %1 = call i16 @llvm.bswap.i16(i16 %buffer.promoted.i)
  store i16 %1, ptr %m_transparency_index, align 8
  call void @llvm.lifetime.end.p0(i64 2, ptr nonnull %buffer.i)
  %cmp5 = icmp ugt i16 %1, 767
  br i1 %cmp5, label %if.then6, label %return

if.then6:                                         ; preds = %if.end
  call void @_ZNK18OpenImageIO_v2_6_010ImageInput8errorfmtIJsEEEvPKcDpRKT_(ptr noundef nonnull align 8 dereferenceable(184) %this, ptr noundef nonnull @.str.68, ptr noundef nonnull align 2 dereferenceable(2) %m_transparency_index)
  br label %return

return:                                           ; preds = %_ZN18OpenImageIO_v2_6_08PSDInput9read_bigeIssEEbRT0_.exit, %if.end, %if.then6
  %retval.0 = phi i1 [ false, %if.then6 ], [ false, %_ZN18OpenImageIO_v2_6_08PSDInput9read_bigeIssEEbRT0_.exit ], [ true, %if.end ]
  ret i1 %retval.0
}